target datalayout = "e-m:e-p270:32:32-p271:32:32-p272:64:64-i64:64-i128:128-f80:128-n8:16:32:64-S128"
target triple = "x86_64-pc-linux-gnu"

@config_file = internal global ptr null, align 8
@.str.18 = private unnamed_addr constant [30 x i8] c"../openssl/test/threadstest.c\00", align 1
@multi_success = internal global i32 0, align 4
@multi_libctx = internal global ptr null, align 8
@multi_num_threads = internal global i64 0, align 8
@multi_threads = internal global [10 x i64] zeroinitializer, align 16
@multi_provider = internal global [5 x ptr] zeroinitializer, align 16
@.str.45 = private unnamed_addr constant [62 x i8] c"test_get_libctx(&multi_libctx, NULL, config_file, NULL, NULL)\00", align 1
@.str.46 = private unnamed_addr constant [2 x i8] c"n\00", align 1
@.str.47 = private unnamed_addr constant [18 x i8] c"MAXIMUM_PROVIDERS\00", align 1
@.str.48 = private unnamed_addr constant [67 x i8] c"multi_provider[n] = OSSL_PROVIDER_load(multi_libctx, providers[n])\00", align 1

; Function Attrs: nounwind uwtable
define internal void @multi_intialise() #0 {
  store i32 1, ptr @multi_success, align 4, !tbaa !4
  store ptr null, ptr @multi_libctx, align 8, !tbaa !20
  store i64 0, ptr @multi_num_threads, align 8, !tbaa !14
  call void @llvm.memset.p0.i64(ptr align 16 @multi_threads, i8 0, i64 80, i1 false)
  call void @llvm.memset.p0.i64(ptr align 16 @multi_provider, i8 0, i64 40, i1 false)
  ret void
}

; Function Attrs: nounwind uwtable
define internal void @thead_teardown_libctx() #0 {
  %1 = alloca ptr, align 8
  call void @llvm.lifetime.start.p0(i64 8, ptr %1) #10
  store ptr @multi_provider, ptr %1, align 8, !tbaa !33
  br label %2

2:                                                ; preds = %10, %0
  %3 = load ptr, ptr %1, align 8, !tbaa !33
  %4 = load ptr, ptr %3, align 8, !tbaa !16
  %5 = icmp ne ptr %4, null
  br i1 %5, label %6, label %13

6:                                                ; preds = %2
  %7 = load ptr, ptr %1, align 8, !tbaa !33
  %8 = load ptr, ptr %7, align 8, !tbaa !16
  %9 = call i32 @OSSL_PROVIDER_unload(ptr noundef %8)
  br label %10

10:                                               ; preds = %6
  %11 = load ptr, ptr %1, align 8, !tbaa !33
  %12 = getelementptr inbounds nuw ptr, ptr %11, i32 1
  store ptr %12, ptr %1, align 8, !tbaa !33
  br label %2, !llvm.loop !35

13:                                               ; preds = %2
  %14 = load ptr, ptr @multi_libctx, align 8, !tbaa !20
  call void @OSSL_LIB_CTX_free(ptr noundef %14)
  call void @multi_intialise()
  call void @llvm.lifetime.end.p0(i64 8, ptr %1) #10
  ret void
}

; Function Attrs: nounwind uwtable
define internal i32 @thread_setup_libctx(i32 noundef %0, ptr noundef %1) #0 {
  %3 = alloca i32, align 4
  %4 = alloca i32, align 4
  %5 = alloca ptr, align 8
  %6 = alloca i64, align 8
  %7 = alloca i32, align 4
  store i32 %0, ptr %4, align 4, !tbaa !4
  store ptr %1, ptr %5, align 8, !tbaa !28
  call void @llvm.lifetime.start.p0(i64 8, ptr %6) #10
  %8 = load i32, ptr %4, align 4, !tbaa !4
  %9 = icmp ne i32 %8, 0
  br i1 %9, label %10, label %18

10:                                               ; preds = %2
  %11 = load ptr, ptr @config_file, align 8, !tbaa !8
  %12 = call i32 @test_get_libctx(ptr noundef @multi_libctx, ptr noundef null, ptr noundef %11, ptr noundef null, ptr noundef null)
  %13 = icmp ne i32 %12, 0
  %14 = zext i1 %13 to i32
  %15 = call i32 @test_true(ptr noundef @.str.18, i32 noundef 752, ptr noundef @.str.45, i32 noundef %14)
  %16 = icmp ne i32 %15, 0
  br i1 %16, label %18, label %17

17:                                               ; preds = %10
  store i32 0, ptr %3, align 4
  store i32 1, ptr %7, align 4
  br label %50

18:                                               ; preds = %10, %2
  %19 = load ptr, ptr %5, align 8, !tbaa !28
  %20 = icmp ne ptr %19, null
  br i1 %20, label %21, label %49

21:                                               ; preds = %18
  store i64 0, ptr %6, align 8, !tbaa !14
  br label %22

22:                                               ; preds = %45, %21
  %23 = load ptr, ptr %5, align 8, !tbaa !28
  %24 = load i64, ptr %6, align 8, !tbaa !14
  %25 = getelementptr inbounds nuw ptr, ptr %23, i64 %24
  %26 = load ptr, ptr %25, align 8, !tbaa !8
  %27 = icmp ne ptr %26, null
  br i1 %27, label %28, label %48

28:                                               ; preds = %22
  %29 = load i64, ptr %6, align 8, !tbaa !14
  %30 = call i32 @test_size_t_lt(ptr noundef @.str.18, i32 noundef 757, ptr noundef @.str.46, ptr noundef @.str.47, i64 noundef %29, i64 noundef 4)
  %31 = icmp ne i32 %30, 0
  br i1 %31, label %32, label %43

32:                                               ; preds = %28
  %33 = load ptr, ptr @multi_libctx, align 8, !tbaa !20
  %34 = load ptr, ptr %5, align 8, !tbaa !28
  %35 = load i64, ptr %6, align 8, !tbaa !14
  %36 = getelementptr inbounds nuw ptr, ptr %34, i64 %35
  %37 = load ptr, ptr %36, align 8, !tbaa !8
  %38 = call ptr @OSSL_PROVIDER_load(ptr noundef %33, ptr noundef %37)
  %39 = load i64, ptr %6, align 8, !tbaa !14
  %40 = getelementptr inbounds nuw [5 x ptr], ptr @multi_provider, i64 0, i64 %39
  store ptr %38, ptr %40, align 8, !tbaa !16
  %41 = call i32 @test_ptr(ptr noundef @.str.18, i32 noundef 759, ptr noundef @.str.48, ptr noundef %38)
  %42 = icmp ne i32 %41, 0
  br i1 %42, label %44, label %43

43:                                               ; preds = %32, %28
  call void @thead_teardown_libctx()
  store i32 0, ptr %3, align 4
  store i32 1, ptr %7, align 4
  br label %50

44:                                               ; preds = %32
  br label %45

45:                                               ; preds = %44
  %46 = load i64, ptr %6, align 8, !tbaa !14
  %47 = add i64 %46, 1
  store i64 %47, ptr %6, align 8, !tbaa !14
  br label %22, !llvm.loop !30

48:                                               ; preds = %22
  br label %49

49:                                               ; preds = %48, %18
  store i32 1, ptr %3, align 4
  store i32 1, ptr %7, align 4
  br label %50

50:                                               ; preds = %49, %43, %17
  call void @llvm.lifetime.end.p0(i64 8, ptr %6) #10
  %51 = load i32, ptr %3, align 4
  ret i32 %51
}