; Function Attrs: nounwind uwtable
define internal fastcc range(i32 0, 2) i32 @thread_setup_libctx(i32 noundef range(i32 0, 2) %0, ptr noundef readonly captures(address_is_null) %1) unnamed_addr #1 {
  %.not = icmp eq i32 %0, 0
  br i1 %.not, label %9, label %3

3:                                                ; preds = %2
  %4 = load ptr, ptr @config_file, align 8, !tbaa !6
  %5 = tail call i32 @test_get_libctx(ptr noundef nonnull @multi_libctx, ptr noundef null, ptr noundef %4, ptr noundef null, ptr noundef null) #11
  %6 = icmp ne i32 %5, 0
  %7 = zext i1 %6 to i32
  %8 = tail call i32 @test_true(ptr noundef nonnull @.str.18, i32 noundef 752, ptr noundef nonnull @.str.45, i32 noundef %7) #11
  %.not11 = icmp eq i32 %8, 0
  br i1 %.not11, label %.loopexit, label %9

9:                                                ; preds = %3, %2
  %.not12 = icmp eq ptr %1, null
  br i1 %.not12, label %.loopexit, label %.preheader

.preheader:                                       ; preds = %9
  %10 = load ptr, ptr %1, align 8, !tbaa !6
  %.not1316 = icmp eq ptr %10, null
  br i1 %.not1316, label %.loopexit, label %.lr.ph

11:                                               ; preds = %16
  %12 = add i64 %.017, 1
  %13 = getelementptr inbounds nuw ptr, ptr %1, i64 %12
  %14 = load ptr, ptr %13, align 8, !tbaa !6
  %.not13 = icmp eq ptr %14, null
  br i1 %.not13, label %.loopexit, label %.lr.ph, !llvm.loop !29

.lr.ph:                                           ; preds = %.preheader, %11
  %.017 = phi i64 [ %12, %11 ], [ 0, %.preheader ]
  %15 = tail call i32 @test_size_t_lt(ptr noundef nonnull @.str.18, i32 noundef 757, ptr noundef nonnull @.str.46, ptr noundef nonnull @.str.47, i64 noundef %.017, i64 noundef 4) #11
  %.not14 = icmp eq i32 %15, 0
  br i1 %.not14, label %23, label %16

16:                                               ; preds = %.lr.ph
  %17 = getelementptr inbounds nuw ptr, ptr %1, i64 %.017
  %18 = load ptr, ptr @multi_libctx, align 8, !tbaa !16
  %19 = load ptr, ptr %17, align 8, !tbaa !6
  %20 = tail call ptr @OSSL_PROVIDER_load(ptr noundef %18, ptr noundef %19) #11
  %21 = getelementptr inbounds nuw [5 x ptr], ptr @multi_provider, i64 0, i64 %.017
  store ptr %20, ptr %21, align 8, !tbaa !24
  %22 = tail call i32 @test_ptr(ptr noundef nonnull @.str.18, i32 noundef 759, ptr noundef nonnull @.str.48, ptr noundef %20) #11
  %.not15 = icmp eq i32 %22, 0
  br i1 %.not15, label %23, label %11

23:                                               ; preds = %16, %.lr.ph
  %24 = load ptr, ptr @multi_provider, align 16, !tbaa !24
  %.not4.i = icmp eq ptr %24, null
  br i1 %.not4.i, label %thead_teardown_libctx.exit, label %.lr.ph.i

.lr.ph.i:                                         ; preds = %23, %.lr.ph.i
  %25 = phi ptr [ %28, %.lr.ph.i ], [ %24, %23 ]
  %.05.i = phi ptr [ %27, %.lr.ph.i ], [ @multi_provider, %23 ]
  %26 = tail call i32 @OSSL_PROVIDER_unload(ptr noundef nonnull %25) #11
  %27 = getelementptr inbounds nuw i8, ptr %.05.i, i64 8
  %28 = load ptr, ptr %27, align 8, !tbaa !24
  %.not.i = icmp eq ptr %28, null
  br i1 %.not.i, label %thead_teardown_libctx.exit, label %.lr.ph.i, !llvm.loop !26

thead_teardown_libctx.exit:                       ; preds = %.lr.ph.i, %23
  %29 = load ptr, ptr @multi_libctx, align 8, !tbaa !16
  tail call void @OSSL_LIB_CTX_free(ptr noundef %29) #11
  store i1 true, ptr @multi_success, align 4
  store ptr null, ptr @multi_libctx, align 8, !tbaa !16
  store i64 0, ptr @multi_num_threads, align 8, !tbaa !12
  tail call void @llvm.memset.p0.i64(ptr noundef nonnull align 16 dereferenceable(80) @multi_threads, i8 0, i64 80, i1 false)
  tail call void @llvm.memset.p0.i64(ptr noundef nonnull align 16 dereferenceable(40) @multi_provider, i8 0, i64 40, i1 false)
  br label %.loopexit

.loopexit:                                        ; preds = %11, %.preheader, %9, %3, %thead_teardown_libctx.exit
  %.09 = phi i32 [ 0, %thead_teardown_libctx.exit ], [ 0, %3 ], [ 1, %9 ], [ 1, %.preheader ], [ 1, %11 ]
  ret i32 %.09
}